target datalayout = "e-m:e-p270:32:32-p271:32:32-p272:64:64-i64:64-i128:128-f80:128-n8:16:32:64-S128"
target triple = "x86_64-pc-linux-gnu"

%struct.kvs_bucket = type { ptr, i32, i32 }

@plugin_type = external constant [0 x i8], align 1
@hash_size = internal global i32 0, align 4
@kvs_hash = internal global ptr null, align 8
@.str.4 = private unnamed_addr constant [37 x i8] c"%s: %s: mpi/pmi2: in kvs_get, key=%s\00", align 1
@__func__.kvs_get = private unnamed_addr constant [8 x i8] c"kvs_get\00", align 1
@.str.5 = private unnamed_addr constant [38 x i8] c"%s: %s: mpi/pmi2: out kvs_get, val=%s\00", align 1

; Function Attrs: inlinehint nounwind uwtable
define internal i32 @_hash(ptr noundef %0) #6 {
  %2 = alloca ptr, align 8
  %3 = alloca i32, align 4
  %4 = alloca i32, align 4
  %5 = alloca i32, align 4
  %6 = alloca i8, align 1
  store ptr %0, ptr %2, align 8
  call void @llvm.lifetime.start.p0(i64 4, ptr %3) #7
  call void @llvm.lifetime.start.p0(i64 4, ptr %4) #7
  call void @llvm.lifetime.start.p0(i64 4, ptr %5) #7
  store i32 0, ptr %5, align 4
  call void @llvm.lifetime.start.p0(i64 1, ptr %6) #7
  %7 = load ptr, ptr %2, align 8
  %8 = call i64 @strlen(ptr noundef %7) #8
  %9 = trunc i64 %8 to i32
  store i32 %9, ptr %3, align 4
  store i32 0, ptr %4, align 4
  br label %10

10:                                               ; preds = %30, %1
  %11 = load i32, ptr %4, align 4
  %12 = load i32, ptr %3, align 4
  %13 = icmp slt i32 %11, %12
  br i1 %13, label %14, label %33

14:                                               ; preds = %10
  %15 = load i32, ptr %5, align 4
  %16 = lshr i32 %15, 24
  %17 = trunc i32 %16 to i8
  store i8 %17, ptr %6, align 1
  %18 = load i32, ptr %5, align 4
  %19 = shl i32 %18, 8
  %20 = load i8, ptr %6, align 1
  %21 = zext i8 %20 to i32
  %22 = load ptr, ptr %2, align 8
  %23 = load i32, ptr %4, align 4
  %24 = sext i32 %23 to i64
  %25 = getelementptr inbounds i8, ptr %22, i64 %24
  %26 = load i8, ptr %25, align 1
  %27 = zext i8 %26 to i32
  %28 = xor i32 %21, %27
  %29 = or i32 %19, %28
  store i32 %29, ptr %5, align 4
  br label %30

30:                                               ; preds = %14
  %31 = load i32, ptr %4, align 4
  %32 = add nsw i32 %31, 1
  store i32 %32, ptr %4, align 4
  br label %10, !llvm.loop !12

33:                                               ; preds = %10
  %34 = load i32, ptr %5, align 4
  call void @llvm.lifetime.end.p0(i64 1, ptr %6) #7
  call void @llvm.lifetime.end.p0(i64 4, ptr %5) #7
  call void @llvm.lifetime.end.p0(i64 4, ptr %4) #7
  call void @llvm.lifetime.end.p0(i64 4, ptr %3) #7
  ret i32 %34
}

; Function Attrs: nounwind uwtable
define dso_local ptr @kvs_get(ptr noundef %0) #0 {
  %2 = alloca ptr, align 8
  %3 = alloca ptr, align 8
  %4 = alloca ptr, align 8
  %5 = alloca i32, align 4
  store ptr %0, ptr %2, align 8
  call void @llvm.lifetime.start.p0(i64 8, ptr %3) #7
  call void @llvm.lifetime.start.p0(i64 8, ptr %4) #7
  store ptr null, ptr %4, align 8
  call void @llvm.lifetime.start.p0(i64 4, ptr %5) #7
  br label %6

6:                                                ; preds = %1
  br label %7

7:                                                ; preds = %6
  %8 = call i32 @slurm_get_log_level()
  %9 = icmp sge i32 %8, 7
  br i1 %9, label %10, label %12

10:                                               ; preds = %7
  %11 = load ptr, ptr %2, align 8
  call void (i32, ptr, ...) @slurm_log_var(i32 noundef 7, ptr noundef @.str.4, ptr noundef @plugin_type, ptr noundef @__func__.kvs_get, ptr noundef %11)
  br label %12

12:                                               ; preds = %10, %7
  br label %13

13:                                               ; preds = %12
  br label %14

14:                                               ; preds = %13
  br label %15

15:                                               ; preds = %14
  br label %16

16:                                               ; preds = %15
  %17 = load ptr, ptr @kvs_hash, align 8
  %18 = load ptr, ptr %2, align 8
  %19 = call i32 @_hash(ptr noundef %18)
  %20 = load i32, ptr @hash_size, align 4
  %21 = urem i32 %19, %20
  %22 = zext i32 %21 to i64
  %23 = getelementptr inbounds nuw %struct.kvs_bucket, ptr %17, i64 %22
  store ptr %23, ptr %3, align 8
  %24 = load ptr, ptr %3, align 8
  %25 = getelementptr inbounds nuw %struct.kvs_bucket, ptr %24, i32 0, i32 1
  %26 = load i32, ptr %25, align 8
  %27 = icmp ugt i32 %26, 0
  br i1 %27, label %28, label %62

28:                                               ; preds = %16
  store i32 0, ptr %5, align 4
  br label %29

29:                                               ; preds = %58, %28
  %30 = load i32, ptr %5, align 4
  %31 = load ptr, ptr %3, align 8
  %32 = getelementptr inbounds nuw %struct.kvs_bucket, ptr %31, i32 0, i32 1
  %33 = load i32, ptr %32, align 8
  %34 = icmp ult i32 %30, %33
  br i1 %34, label %35, label %61

35:                                               ; preds = %29
  %36 = load ptr, ptr %2, align 8
  %37 = load ptr, ptr %3, align 8
  %38 = getelementptr inbounds nuw %struct.kvs_bucket, ptr %37, i32 0, i32 0
  %39 = load ptr, ptr %38, align 8
  %40 = load i32, ptr %5, align 4
  %41 = mul nsw i32 %40, 2
  %42 = sext i32 %41 to i64
  %43 = getelementptr inbounds ptr, ptr %39, i64 %42
  %44 = load ptr, ptr %43, align 8
  %45 = call i32 @slurm_xstrcmp(ptr noundef %36, ptr noundef %44)
  %46 = icmp ne i32 %45, 0
  br i1 %46, label %57, label %47

47:                                               ; preds = %35
  %48 = load ptr, ptr %3, align 8
  %49 = getelementptr inbounds nuw %struct.kvs_bucket, ptr %48, i32 0, i32 0
  %50 = load ptr, ptr %49, align 8
  %51 = load i32, ptr %5, align 4
  %52 = mul nsw i32 %51, 2
  %53 = add nsw i32 %52, 1
  %54 = sext i32 %53 to i64
  %55 = getelementptr inbounds ptr, ptr %50, i64 %54
  %56 = load ptr, ptr %55, align 8
  store ptr %56, ptr %4, align 8
  br label %61

57:                                               ; preds = %35
  br label %58

58:                                               ; preds = %57
  %59 = load i32, ptr %5, align 4
  %60 = add nsw i32 %59, 1
  store i32 %60, ptr %5, align 4
  br label %29, !llvm.loop !10

61:                                               ; preds = %47, %29
  br label %62

62:                                               ; preds = %61, %16
  br label %63

63:                                               ; preds = %62
  br label %64

64:                                               ; preds = %63
  %65 = call i32 @slurm_get_log_level()
  %66 = icmp sge i32 %65, 7
  br i1 %66, label %67, label %69

67:                                               ; preds = %64
  %68 = load ptr, ptr %4, align 8
  call void (i32, ptr, ...) @slurm_log_var(i32 noundef 7, ptr noundef @.str.5, ptr noundef @plugin_type, ptr noundef @__func__.kvs_get, ptr noundef %68)
  br label %69

69:                                               ; preds = %67, %64
  br label %70

70:                                               ; preds = %69
  br label %71

71:                                               ; preds = %70
  br label %72

72:                                               ; preds = %71
  br label %73

73:                                               ; preds = %72
  %74 = load ptr, ptr %4, align 8
  call void @llvm.lifetime.end.p0(i64 4, ptr %5) #7
  call void @llvm.lifetime.end.p0(i64 8, ptr %4) #7
  call void @llvm.lifetime.end.p0(i64 8, ptr %3) #7
  ret ptr %74
}