; Function Attrs: nounwind uwtable
define dso_local ptr @kvs_get(ptr noundef %0) local_unnamed_addr #0 {
  %2 = tail call i32 @slurm_get_log_level() #6
  %3 = icmp sgt i32 %2, 6
  br i1 %3, label %4, label %5

4:                                                ; preds = %1
  tail call void (i32, ptr, ...) @slurm_log_var(i32 noundef 7, ptr noundef nonnull @.str.4, ptr noundef nonnull @plugin_type, ptr noundef nonnull @__func__.kvs_get, ptr noundef %0) #6
  br label %5

5:                                                ; preds = %4, %1
  %6 = load ptr, ptr @kvs_hash, align 8
  %7 = tail call i64 @strlen(ptr noundef nonnull readonly dereferenceable(1) %0) #7
  %8 = trunc i64 %7 to i32
  %9 = icmp sgt i32 %8, 0
  br i1 %9, label %.lr.ph.preheader.i, label %_hash.exit

.lr.ph.preheader.i:                               ; preds = %5
  %wide.trip.count.i = and i64 %7, 2147483647
  br label %.lr.ph.i

.lr.ph.i:                                         ; preds = %.lr.ph.i, %.lr.ph.preheader.i
  %indvars.iv.i = phi i64 [ 0, %.lr.ph.preheader.i ], [ %indvars.iv.next.i, %.lr.ph.i ]
  %.0910.i = phi i32 [ 0, %.lr.ph.preheader.i ], [ %16, %.lr.ph.i ]
  %10 = lshr i32 %.0910.i, 24
  %11 = shl i32 %.0910.i, 8
  %12 = getelementptr inbounds nuw i8, ptr %0, i64 %indvars.iv.i
  %13 = load i8, ptr %12, align 1
  %14 = zext i8 %13 to i32
  %15 = xor i32 %10, %14
  %16 = or disjoint i32 %15, %11
  %indvars.iv.next.i = add nuw nsw i64 %indvars.iv.i, 1
  %exitcond.not.i = icmp eq i64 %indvars.iv.next.i, %wide.trip.count.i
  br i1 %exitcond.not.i, label %_hash.exit, label %.lr.ph.i, !llvm.loop !10

_hash.exit:                                       ; preds = %.lr.ph.i, %5
  %.09.lcssa.i = phi i32 [ 0, %5 ], [ %16, %.lr.ph.i ]
  %17 = load i32, ptr @hash_size, align 4
  %18 = urem i32 %.09.lcssa.i, %17
  %19 = zext nneg i32 %18 to i64
  %20 = getelementptr inbounds nuw %struct.kvs_bucket, ptr %6, i64 %19
  %21 = getelementptr inbounds nuw i8, ptr %20, i64 8
  %22 = load i32, ptr %21, align 8
  %.not = icmp eq i32 %22, 0
  br i1 %.not, label %.loopexit, label %.lr.ph

23:                                               ; preds = %.lr.ph
  %indvars.iv.next = add nuw nsw i64 %indvars.iv, 1
  %24 = load i32, ptr %21, align 8
  %25 = zext i32 %24 to i64
  %26 = icmp samesign ult i64 %indvars.iv.next, %25
  br i1 %26, label %.lr.ph, label %.loopexit, !llvm.loop !12

.lr.ph:                                           ; preds = %_hash.exit, %23
  %indvars.iv = phi i64 [ %indvars.iv.next, %23 ], [ 0, %_hash.exit ]
  %27 = load ptr, ptr %20, align 8
  %28 = shl nuw nsw i64 %indvars.iv, 1
  %29 = getelementptr inbounds nuw ptr, ptr %27, i64 %28
  %30 = load ptr, ptr %29, align 8
  %31 = tail call i32 @slurm_xstrcmp(ptr noundef nonnull %0, ptr noundef %30) #6
  %.not13 = icmp eq i32 %31, 0
  br i1 %.not13, label %32, label %23

32:                                               ; preds = %.lr.ph
  %33 = load ptr, ptr %20, align 8
  %34 = and i64 %28, 4294967294
  %35 = or disjoint i64 %34, 1
  %36 = getelementptr inbounds nuw ptr, ptr %33, i64 %35
  %37 = load ptr, ptr %36, align 8
  br label %.loopexit

.loopexit:                                        ; preds = %23, %32, %_hash.exit
  %.012 = phi ptr [ %37, %32 ], [ null, %_hash.exit ], [ null, %23 ]
  %38 = tail call i32 @slurm_get_log_level() #6
  %39 = icmp sgt i32 %38, 6
  br i1 %39, label %40, label %41

40:                                               ; preds = %.loopexit
  tail call void (i32, ptr, ...) @slurm_log_var(i32 noundef 7, ptr noundef nonnull @.str.5, ptr noundef nonnull @plugin_type, ptr noundef nonnull @__func__.kvs_get, ptr noundef %.012) #6
  br label %41

41:                                               ; preds = %40, %.loopexit
  ret ptr %.012
}